target datalayout = "e-m:e-p270:32:32-p271:32:32-p272:64:64-i64:64-i128:128-f80:128-n8:16:32:64-S128"
target triple = "x86_64-pc-linux-gnu"

%struct.Cut_OracleStruct_t_ = type { ptr, ptr, i32, ptr, ptr, ptr, ptr, ptr, ptr, ptr, i32, i32, i64, i32, i32 }
%struct.Cut_ParamsStruct_t_ = type { i32, i32, i32, i32, i32, i32, i32, i32, i32, i32, i32, i32, i32, i32, i32, i32, i32, i32, i32, i32 }
%struct.Vec_Ptr_t_ = type { i32, i32, ptr }
%struct.Cut_CutStruct_t_ = type { i32, i32, i32, i32, ptr, [0 x i32] }

; Function Attrs: inlinehint nounwind uwtable
define internal ptr @Cut_CutReadTruth(ptr noundef %0) #4 {
  %2 = alloca ptr, align 8
  store ptr %0, ptr %2, align 8, !tbaa !59
  %3 = load ptr, ptr %2, align 8, !tbaa !59
  %4 = getelementptr inbounds nuw %struct.Cut_CutStruct_t_, ptr %3, i32 0, i32 5
  %5 = getelementptr inbounds [0 x i32], ptr %4, i64 0, i64 0
  %6 = load ptr, ptr %2, align 8, !tbaa !59
  %7 = load i32, ptr %6, align 8
  %8 = lshr i32 %7, 24
  %9 = and i32 %8, 15
  %10 = sext i32 %9 to i64
  %11 = getelementptr inbounds i32, ptr %5, i64 %10
  ret ptr %11
}

; Function Attrs: nounwind uwtable
define internal ptr @Cut_CutStart(ptr noundef %0) #0 {
  %2 = alloca ptr, align 8
  %3 = alloca ptr, align 8
  store ptr %0, ptr %2, align 8, !tbaa !8
  call void @llvm.lifetime.start.p0(i64 8, ptr %3) #10
  %4 = load ptr, ptr %2, align 8, !tbaa !8
  %5 = getelementptr inbounds nuw %struct.Cut_OracleStruct_t_, ptr %4, i32 0, i32 9
  %6 = load ptr, ptr %5, align 8, !tbaa !36
  %7 = call ptr @Extra_MmFixedEntryFetch(ptr noundef %6)
  store ptr %7, ptr %3, align 8, !tbaa !59
  %8 = load ptr, ptr %3, align 8, !tbaa !59
  call void @llvm.memset.p0.i64(ptr align 8 %8, i8 0, i64 24, i1 false)
  %9 = load ptr, ptr %2, align 8, !tbaa !8
  %10 = getelementptr inbounds nuw %struct.Cut_OracleStruct_t_, ptr %9, i32 0, i32 0
  %11 = load ptr, ptr %10, align 8, !tbaa !19
  %12 = getelementptr inbounds nuw %struct.Cut_ParamsStruct_t_, ptr %11, i32 0, i32 0
  %13 = load i32, ptr %12, align 4, !tbaa !32
  %14 = load ptr, ptr %3, align 8, !tbaa !59
  %15 = load i32, ptr %14, align 8
  %16 = and i32 %13, 15
  %17 = shl i32 %16, 24
  %18 = and i32 %15, -251658241
  %19 = or i32 %18, %17
  store i32 %19, ptr %14, align 8
  %20 = load ptr, ptr %2, align 8, !tbaa !8
  %21 = getelementptr inbounds nuw %struct.Cut_OracleStruct_t_, ptr %20, i32 0, i32 2
  %22 = load i32, ptr %21, align 8, !tbaa !65
  %23 = load ptr, ptr %3, align 8, !tbaa !59
  %24 = load i32, ptr %23, align 8
  %25 = and i32 %22, 1
  %26 = shl i32 %25, 22
  %27 = and i32 %24, -4194305
  %28 = or i32 %27, %26
  store i32 %28, ptr %23, align 8
  %29 = load ptr, ptr %2, align 8, !tbaa !8
  %30 = getelementptr inbounds nuw %struct.Cut_OracleStruct_t_, ptr %29, i32 0, i32 13
  %31 = load i32, ptr %30, align 8, !tbaa !46
  %32 = add nsw i32 %31, 1
  store i32 %32, ptr %30, align 8, !tbaa !46
  %33 = load ptr, ptr %3, align 8, !tbaa !59
  call void @llvm.lifetime.end.p0(i64 8, ptr %3) #10
  ret ptr %33
}

; Function Attrs: inlinehint nounwind uwtable
define internal void @Vec_PtrWriteEntry(ptr noundef %0, i32 noundef %1, ptr noundef %2) #4 {
  %4 = alloca ptr, align 8
  %5 = alloca i32, align 4
  %6 = alloca ptr, align 8
  store ptr %0, ptr %4, align 8, !tbaa !38
  store i32 %1, ptr %5, align 4, !tbaa !37
  store ptr %2, ptr %6, align 8, !tbaa !43
  %7 = load ptr, ptr %6, align 8, !tbaa !43
  %8 = load ptr, ptr %4, align 8, !tbaa !38
  %9 = getelementptr inbounds nuw %struct.Vec_Ptr_t_, ptr %8, i32 0, i32 2
  %10 = load ptr, ptr %9, align 8, !tbaa !42
  %11 = load i32, ptr %5, align 4, !tbaa !37
  %12 = sext i32 %11 to i64
  %13 = getelementptr inbounds ptr, ptr %10, i64 %12
  store ptr %7, ptr %13, align 8, !tbaa !43
  ret void
}

; Function Attrs: nounwind uwtable
define internal ptr @Cut_CutTriv(ptr noundef %0, i32 noundef %1) #0 {
  %3 = alloca ptr, align 8
  %4 = alloca i32, align 4
  %5 = alloca ptr, align 8
  %6 = alloca ptr, align 8
  %7 = alloca i32, align 4
  store ptr %0, ptr %3, align 8, !tbaa !8
  store i32 %1, ptr %4, align 4, !tbaa !37
  call void @llvm.lifetime.start.p0(i64 8, ptr %5) #10
  %8 = load ptr, ptr %3, align 8, !tbaa !8
  %9 = call ptr @Cut_CutStart(ptr noundef %8)
  store ptr %9, ptr %5, align 8, !tbaa !59
  %10 = load ptr, ptr %5, align 8, !tbaa !59
  %11 = load i32, ptr %10, align 8
  %12 = and i32 %11, 268435455
  %13 = or i32 %12, 268435456
  store i32 %13, ptr %10, align 8
  %14 = load i32, ptr %4, align 4, !tbaa !37
  %15 = load ptr, ptr %5, align 8, !tbaa !59
  %16 = getelementptr inbounds nuw %struct.Cut_CutStruct_t_, ptr %15, i32 0, i32 5
  %17 = getelementptr inbounds [0 x i32], ptr %16, i64 0, i64 0
  store i32 %14, ptr %17, align 8, !tbaa !37
  %18 = load ptr, ptr %3, align 8, !tbaa !8
  %19 = getelementptr inbounds nuw %struct.Cut_OracleStruct_t_, ptr %18, i32 0, i32 0
  %20 = load ptr, ptr %19, align 8, !tbaa !19
  %21 = getelementptr inbounds nuw %struct.Cut_ParamsStruct_t_, ptr %20, i32 0, i32 5
  %22 = load i32, ptr %21, align 4, !tbaa !34
  %23 = icmp ne i32 %22, 0
  br i1 %23, label %24, label %42

24:                                               ; preds = %2
  call void @llvm.lifetime.start.p0(i64 8, ptr %6) #10
  %25 = load ptr, ptr %5, align 8, !tbaa !59
  %26 = call ptr @Cut_CutReadTruth(ptr noundef %25)
  store ptr %26, ptr %6, align 8, !tbaa !60
  call void @llvm.lifetime.start.p0(i64 4, ptr %7) #10
  store i32 0, ptr %7, align 4, !tbaa !37
  br label %27

27:                                               ; preds = %38, %24
  %28 = load i32, ptr %7, align 4, !tbaa !37
  %29 = load ptr, ptr %3, align 8, !tbaa !8
  %30 = getelementptr inbounds nuw %struct.Cut_OracleStruct_t_, ptr %29, i32 0, i32 11
  %31 = load i32, ptr %30, align 4, !tbaa !35
  %32 = icmp slt i32 %28, %31
  br i1 %32, label %33, label %41

33:                                               ; preds = %27
  %34 = load ptr, ptr %6, align 8, !tbaa !60
  %35 = load i32, ptr %7, align 4, !tbaa !37
  %36 = sext i32 %35 to i64
  %37 = getelementptr inbounds i32, ptr %34, i64 %36
  store i32 -1431655766, ptr %37, align 4, !tbaa !37
  br label %38

38:                                               ; preds = %33
  %39 = load i32, ptr %7, align 4, !tbaa !37
  %40 = add nsw i32 %39, 1
  store i32 %40, ptr %7, align 4, !tbaa !37
  br label %27, !llvm.loop !61

41:                                               ; preds = %27
  call void @llvm.lifetime.end.p0(i64 4, ptr %7) #10
  call void @llvm.lifetime.end.p0(i64 8, ptr %6) #10
  br label %42

42:                                               ; preds = %41, %2
  %43 = load ptr, ptr %3, align 8, !tbaa !8
  %44 = getelementptr inbounds nuw %struct.Cut_OracleStruct_t_, ptr %43, i32 0, i32 14
  %45 = load i32, ptr %44, align 4, !tbaa !47
  %46 = add nsw i32 %45, 1
  store i32 %46, ptr %44, align 4, !tbaa !47
  %47 = load ptr, ptr %5, align 8, !tbaa !59
  call void @llvm.lifetime.end.p0(i64 8, ptr %5) #10
  ret ptr %47
}

; Function Attrs: nounwind uwtable
define void @Cut_OracleNodeSetTriv(ptr noundef %0, i32 noundef %1) #0 {
  %3 = alloca ptr, align 8
  %4 = alloca i32, align 4
  store ptr %0, ptr %3, align 8, !tbaa !8
  store i32 %1, ptr %4, align 4, !tbaa !37
  %5 = load ptr, ptr %3, align 8, !tbaa !8
  %6 = getelementptr inbounds nuw %struct.Cut_OracleStruct_t_, ptr %5, i32 0, i32 3
  %7 = load ptr, ptr %6, align 8, !tbaa !29
  %8 = load i32, ptr %4, align 4, !tbaa !37
  %9 = load ptr, ptr %3, align 8, !tbaa !8
  %10 = load i32, ptr %4, align 4, !tbaa !37
  %11 = call ptr @Cut_CutTriv(ptr noundef %9, i32 noundef %10)
  call void @Vec_PtrWriteEntry(ptr noundef %7, i32 noundef %8, ptr noundef %11)
  ret void
}