; Function Attrs: nounwind uwtable
define void @Cut_OracleNodeSetTriv(ptr noundef captures(none) %0, i32 noundef %1) local_unnamed_addr #0 {
  %3 = getelementptr inbounds nuw i8, ptr %0, i64 24
  %4 = load ptr, ptr %3, align 8, !tbaa !28
  %5 = getelementptr inbounds nuw i8, ptr %0, i64 72
  %6 = load ptr, ptr %5, align 8, !tbaa !39
  %7 = tail call ptr @Extra_MmFixedEntryFetch(ptr noundef %6) #18
  tail call void @llvm.memset.p0.i64(ptr noundef nonnull align 8 dereferenceable(24) %7, i8 0, i64 24, i1 false)
  %8 = load ptr, ptr %0, align 8, !tbaa !15
  %9 = load i32, ptr %8, align 4, !tbaa !35
  %10 = shl i32 %9, 24
  %11 = and i32 %10, 251658240
  store i32 %11, ptr %7, align 8
  %12 = getelementptr inbounds nuw i8, ptr %0, i64 16
  %13 = load i32, ptr %12, align 8, !tbaa !54
  %14 = shl i32 %13, 22
  %15 = and i32 %14, 4194304
  %16 = or disjoint i32 %15, %11
  store i32 %16, ptr %7, align 8
  %17 = getelementptr inbounds nuw i8, ptr %0, i64 96
  %18 = load i32, ptr %17, align 8, !tbaa !40
  %19 = add nsw i32 %18, 1
  store i32 %19, ptr %17, align 8, !tbaa !40
  %20 = load i32, ptr %7, align 8
  %21 = and i32 %20, 268435455
  %22 = or disjoint i32 %21, 268435456
  store i32 %22, ptr %7, align 8
  %23 = getelementptr inbounds nuw i8, ptr %7, i64 24
  store i32 %1, ptr %23, align 8, !tbaa !47
  %24 = load ptr, ptr %0, align 8, !tbaa !15
  %25 = getelementptr inbounds nuw i8, ptr %24, i64 20
  %26 = load i32, ptr %25, align 4, !tbaa !37
  %.not.i = icmp eq i32 %26, 0
  br i1 %.not.i, label %Cut_CutTriv.exit, label %27

27:                                               ; preds = %2
  %28 = lshr i32 %20, 24
  %29 = and i32 %28, 15
  %30 = zext nneg i32 %29 to i64
  %31 = getelementptr inbounds nuw i32, ptr %23, i64 %30
  %32 = getelementptr inbounds nuw i8, ptr %0, i64 84
  %33 = load i32, ptr %32, align 4, !tbaa !38
  %34 = icmp sgt i32 %33, 0
  br i1 %34, label %.lr.ph.i, label %Cut_CutTriv.exit

.lr.ph.i:                                         ; preds = %27, %.lr.ph.i
  %indvars.iv.i = phi i64 [ %indvars.iv.next.i, %.lr.ph.i ], [ 0, %27 ]
  %35 = getelementptr inbounds nuw i32, ptr %31, i64 %indvars.iv.i
  store i32 -1431655766, ptr %35, align 4, !tbaa !47
  %indvars.iv.next.i = add nuw nsw i64 %indvars.iv.i, 1
  %36 = load i32, ptr %32, align 4, !tbaa !38
  %37 = sext i32 %36 to i64
  %38 = icmp slt i64 %indvars.iv.next.i, %37
  br i1 %38, label %.lr.ph.i, label %Cut_CutTriv.exit, !llvm.loop !55

Cut_CutTriv.exit:                                 ; preds = %.lr.ph.i, %2, %27
  %39 = getelementptr inbounds nuw i8, ptr %0, i64 100
  %40 = load i32, ptr %39, align 4, !tbaa !41
  %41 = add nsw i32 %40, 1
  store i32 %41, ptr %39, align 4, !tbaa !41
  %42 = getelementptr i8, ptr %4, i64 8
  %.val = load ptr, ptr %42, align 8, !tbaa !27
  %43 = sext i32 %1 to i64
  %44 = getelementptr inbounds ptr, ptr %.val, i64 %43
  store ptr %7, ptr %44, align 8, !tbaa !29
  ret void
}